target datalayout = "e-m:e-p270:32:32-p271:32:32-p272:64:64-i64:64-i128:128-f80:128-n8:16:32:64-S128"
target triple = "x86_64-unknown-linux-gnu"

%"class.sat::literal" = type { i32 }
%"class.sat::aig_cuts" = type { %class.random_gen, %"struct.sat::aig_cuts::config", %class.vector, %class.svector, %class.region, %"class.sat::cut_set", %"class.sat::cut_set", %"class.sat::cut_set", %class.vector.1, %class.svector.2, %class.svector.2, i32, i32, %class.svector.4, i32, %"class.std::function", %"class.std::function", %"class.std::function.6", %"class.std::function.6", %class.svector, [6 x ptr], [6 x i64], [6 x %"class.sat::literal"] }
%class.random_gen = type { i32 }
%"struct.sat::aig_cuts::config" = type <{ i32, i32, i32, i8, [3 x i8] }>
%class.vector = type { ptr }
%class.region = type { ptr, ptr, ptr, ptr, ptr }
%"class.sat::cut_set" = type { i32, ptr, i32, i32, ptr }
%class.vector.1 = type { ptr }
%class.svector.2 = type { %class.vector.3 }
%class.vector.3 = type { ptr }
%class.svector.4 = type { %class.vector.5 }
%class.vector.5 = type { ptr }
%"class.std::function" = type { %"class.std::_Function_base", ptr }
%"class.std::_Function_base" = type { %"union.std::_Any_data", ptr }
%"union.std::_Any_data" = type { %"union.std::_Nocopy_types" }
%"union.std::_Nocopy_types" = type { { i64, i64 } }
%"class.std::function.6" = type { %"class.std::_Function_base", ptr }
%class.svector = type { %class.vector.0 }
%class.vector.0 = type { ptr }
%"class.sat::cut" = type { i32, i32, [5 x i32], i64, i64 }

@.str.6 = private unnamed_addr constant [2 x i8] c"\0A\00", align 1
@.str.30 = private unnamed_addr constant [14 x i8] c"#don't cares \00", align 1

; Function Attrs: mustprogress nounwind uwtable
define linkonce_odr hidden noundef i64 @_ZNK3sat3cut10table_maskEv(ptr noundef nonnull align 8 dereferenceable(48) %this) #4 comdat align 2 {
entry:
  %this.addr = alloca ptr, align 8
  store ptr %this, ptr %this.addr, align 8
  %this1 = load ptr, ptr %this.addr, align 8
  %m_size = getelementptr inbounds %"class.sat::cut", ptr %this1, i32 0, i32 1
  %0 = load i32, ptr %m_size, align 4
  %sh_prom = zext i32 %0 to i64
  %shl = shl i64 1, %sh_prom
  %shl2 = shl i64 1, %shl
  %sub = sub i64 %shl2, 1
  ret i64 %sub
}

; Function Attrs: mustprogress nounwind uwtable
define linkonce_odr hidden noundef i32 @_ZNK6vectorIN3sat7cut_setELb1EjE4sizeEv(ptr noundef nonnull align 8 dereferenceable(8) %this) #4 comdat align 2 {
entry:
  %retval = alloca i32, align 4
  %this.addr = alloca ptr, align 8
  store ptr %this, ptr %this.addr, align 8
  %this1 = load ptr, ptr %this.addr, align 8
  %m_data = getelementptr inbounds %class.vector.1, ptr %this1, i32 0, i32 0
  %0 = load ptr, ptr %m_data, align 8
  %cmp = icmp eq ptr %0, null
  br i1 %cmp, label %if.then, label %if.end

if.then:                                          ; preds = %entry
  store i32 0, ptr %retval, align 4
  br label %return

if.end:                                           ; preds = %entry
  %m_data2 = getelementptr inbounds %class.vector.1, ptr %this1, i32 0, i32 0
  %1 = load ptr, ptr %m_data2, align 8
  %arrayidx = getelementptr inbounds i32, ptr %1, i64 -1
  %2 = load i32, ptr %arrayidx, align 4
  store i32 %2, ptr %retval, align 4
  br label %return

return:                                           ; preds = %if.end, %if.then
  %3 = load i32, ptr %retval, align 4
  ret i32 %3
}

; Function Attrs: mustprogress nounwind uwtable
define linkonce_odr noundef nonnull align 4 dereferenceable(4) ptr @_ZSt3minIjERKT_S2_S2_(ptr noundef nonnull align 4 dereferenceable(4) %__a, ptr noundef nonnull align 4 dereferenceable(4) %__b) #4 comdat {
entry:
  %retval = alloca ptr, align 8
  %__a.addr = alloca ptr, align 8
  %__b.addr = alloca ptr, align 8
  store ptr %__a, ptr %__a.addr, align 8
  store ptr %__b, ptr %__b.addr, align 8
  %0 = load ptr, ptr %__b.addr, align 8
  %1 = load i32, ptr %0, align 4
  %2 = load ptr, ptr %__a.addr, align 8
  %3 = load i32, ptr %2, align 4
  %cmp = icmp ult i32 %1, %3
  br i1 %cmp, label %if.then, label %if.end

if.then:                                          ; preds = %entry
  %4 = load ptr, ptr %__b.addr, align 8
  store ptr %4, ptr %retval, align 8
  br label %return

if.end:                                           ; preds = %entry
  %5 = load ptr, ptr %__a.addr, align 8
  store ptr %5, ptr %retval, align 8
  br label %return

return:                                           ; preds = %if.end, %if.then
  %6 = load ptr, ptr %retval, align 8
  ret ptr %6
}

; Function Attrs: mustprogress nounwind uwtable
define linkonce_odr hidden noundef i32 @_ZNK3sat3cut4sizeEv(ptr noundef nonnull align 8 dereferenceable(48) %this) #4 comdat align 2 {
entry:
  %this.addr = alloca ptr, align 8
  store ptr %this, ptr %this.addr, align 8
  %this1 = load ptr, ptr %this.addr, align 8
  %m_size = getelementptr inbounds %"class.sat::cut", ptr %this1, i32 0, i32 1
  %0 = load i32, ptr %m_size, align 4
  ret i32 %0
}

; Function Attrs: mustprogress nounwind uwtable
define linkonce_odr hidden noundef i64 @_ZNK3sat3cut5tableEv(ptr noundef nonnull align 8 dereferenceable(48) %this) #4 comdat align 2 {
entry:
  %this.addr = alloca ptr, align 8
  store ptr %this, ptr %this.addr, align 8
  %this1 = load ptr, ptr %this.addr, align 8
  %m_table = getelementptr inbounds %"class.sat::cut", ptr %this1, i32 0, i32 3
  %0 = load i64, ptr %m_table, align 8
  %m_dont_care = getelementptr inbounds %"class.sat::cut", ptr %this1, i32 0, i32 4
  %1 = load i64, ptr %m_dont_care, align 8
  %or = or i64 %0, %1
  %call = call noundef i64 @_ZNK3sat3cut10table_maskEv(ptr noundef nonnull align 8 dereferenceable(48) %this1)
  %and = and i64 %or, %call
  ret i64 %and
}

; Function Attrs: mustprogress nounwind uwtable
define linkonce_odr hidden noundef ptr @_ZNK3sat7cut_set3endEv(ptr noundef nonnull align 8 dereferenceable(32) %this) #4 comdat align 2 {
entry:
  %this.addr = alloca ptr, align 8
  store ptr %this, ptr %this.addr, align 8
  %this1 = load ptr, ptr %this.addr, align 8
  %m_cuts = getelementptr inbounds %"class.sat::cut_set", ptr %this1, i32 0, i32 4
  %0 = load ptr, ptr %m_cuts, align 8
  %m_size = getelementptr inbounds %"class.sat::cut_set", ptr %this1, i32 0, i32 2
  %1 = load i32, ptr %m_size, align 8
  %idx.ext = zext i32 %1 to i64
  %add.ptr = getelementptr inbounds %"class.sat::cut", ptr %0, i64 %idx.ext
  ret ptr %add.ptr
}

; Function Attrs: mustprogress nounwind uwtable
define linkonce_odr hidden noundef ptr @_ZNK3sat7cut_set5beginEv(ptr noundef nonnull align 8 dereferenceable(32) %this) #4 comdat align 2 {
entry:
  %this.addr = alloca ptr, align 8
  store ptr %this, ptr %this.addr, align 8
  %this1 = load ptr, ptr %this.addr, align 8
  %m_cuts = getelementptr inbounds %"class.sat::cut_set", ptr %this1, i32 0, i32 4
  %0 = load ptr, ptr %m_cuts, align 8
  ret ptr %0
}

; Function Attrs: mustprogress nounwind uwtable
define linkonce_odr hidden noundef ptr @_ZN6vectorIN3sat7cut_setELb1EjE3endEv(ptr noundef nonnull align 8 dereferenceable(8) %this) #4 comdat align 2 {
entry:
  %this.addr = alloca ptr, align 8
  store ptr %this, ptr %this.addr, align 8
  %this1 = load ptr, ptr %this.addr, align 8
  %m_data = getelementptr inbounds %class.vector.1, ptr %this1, i32 0, i32 0
  %0 = load ptr, ptr %m_data, align 8
  %call = call noundef i32 @_ZNK6vectorIN3sat7cut_setELb1EjE4sizeEv(ptr noundef nonnull align 8 dereferenceable(8) %this1)
  %idx.ext = zext i32 %call to i64
  %add.ptr = getelementptr inbounds %"class.sat::cut_set", ptr %0, i64 %idx.ext
  ret ptr %add.ptr
}

; Function Attrs: mustprogress nounwind uwtable
define linkonce_odr hidden noundef ptr @_ZN6vectorIN3sat7cut_setELb1EjE5beginEv(ptr noundef nonnull align 8 dereferenceable(8) %this) #4 comdat align 2 {
entry:
  %this.addr = alloca ptr, align 8
  store ptr %this, ptr %this.addr, align 8
  %this1 = load ptr, ptr %this.addr, align 8
  %m_data = getelementptr inbounds %class.vector.1, ptr %this1, i32 0, i32 0
  %0 = load ptr, ptr %m_data, align 8
  ret ptr %0
}

; Function Attrs: mustprogress uwtable
define hidden void @_ZN3sat8aig_cuts8simplifyEv(ptr noundef nonnull align 8 dereferenceable(480) %this) #5 align 2 {
entry:
  %this.addr = alloca ptr, align 8
  %masks = alloca [7 x i64], align 16
  %i = alloca i32, align 4
  %dont_cares = alloca i32, align 4
  %__range1 = alloca ptr, align 8
  %__begin1 = alloca ptr, align 8
  %__end1 = alloca ptr, align 8
  %cs = alloca ptr, align 8
  %__range2 = alloca ptr, align 8
  %__begin2 = alloca ptr, align 8
  %__end2 = alloca ptr, align 8
  %c = alloca ptr, align 8
  %t = alloca i64, align 8
  %i13 = alloca i32, align 4
  %ref.tmp = alloca i32, align 4
  %ref.tmp15 = alloca i32, align 4
  %diff = alloca i64, align 8
  %d = alloca %"class.sat::cut", align 8
  store ptr %this, ptr %this.addr, align 8
  %this1 = load ptr, ptr %this.addr, align 8
  store i32 0, ptr %i, align 4
  br label %for.cond

for.cond:                                         ; preds = %for.inc, %entry
  %0 = load i32, ptr %i, align 4
  %cmp = icmp ule i32 %0, 6
  br i1 %cmp, label %for.body, label %for.end

for.body:                                         ; preds = %for.cond
  %1 = load i32, ptr %i, align 4
  %call = call noundef i64 @_ZN3sat3cut11effect_maskEj(i32 noundef %1)
  %2 = load i32, ptr %i, align 4
  %idxprom = zext i32 %2 to i64
  %arrayidx = getelementptr inbounds [7 x i64], ptr %masks, i64 0, i64 %idxprom
  store i64 %call, ptr %arrayidx, align 8
  br label %for.inc

for.inc:                                          ; preds = %for.body
  %3 = load i32, ptr %i, align 4
  %inc = add i32 %3, 1
  store i32 %inc, ptr %i, align 4
  br label %for.cond, !llvm.loop !40

for.end:                                          ; preds = %for.cond
  store i32 0, ptr %dont_cares, align 4
  %m_cuts = getelementptr inbounds %"class.sat::aig_cuts", ptr %this1, i32 0, i32 8
  store ptr %m_cuts, ptr %__range1, align 8
  %4 = load ptr, ptr %__range1, align 8
  %call2 = call noundef ptr @_ZN6vectorIN3sat7cut_setELb1EjE5beginEv(ptr noundef nonnull align 8 dereferenceable(8) %4)
  store ptr %call2, ptr %__begin1, align 8
  %5 = load ptr, ptr %__range1, align 8
  %call3 = call noundef ptr @_ZN6vectorIN3sat7cut_setELb1EjE3endEv(ptr noundef nonnull align 8 dereferenceable(8) %5)
  store ptr %call3, ptr %__end1, align 8
  br label %for.cond4

for.cond4:                                        ; preds = %for.inc31, %for.end
  %6 = load ptr, ptr %__begin1, align 8
  %7 = load ptr, ptr %__end1, align 8
  %cmp5 = icmp ne ptr %6, %7
  br i1 %cmp5, label %for.body6, label %for.end33

for.body6:                                        ; preds = %for.cond4
  %8 = load ptr, ptr %__begin1, align 8
  store ptr %8, ptr %cs, align 8
  %9 = load ptr, ptr %cs, align 8
  store ptr %9, ptr %__range2, align 8
  %10 = load ptr, ptr %__range2, align 8
  %call7 = call noundef ptr @_ZNK3sat7cut_set5beginEv(ptr noundef nonnull align 8 dereferenceable(32) %10)
  store ptr %call7, ptr %__begin2, align 8
  %11 = load ptr, ptr %__range2, align 8
  %call8 = call noundef ptr @_ZNK3sat7cut_set3endEv(ptr noundef nonnull align 8 dereferenceable(32) %11)
  store ptr %call8, ptr %__end2, align 8
  br label %for.cond9

for.cond9:                                        ; preds = %for.inc29, %for.body6
  %12 = load ptr, ptr %__begin2, align 8
  %13 = load ptr, ptr %__end2, align 8
  %cmp10 = icmp ne ptr %12, %13
  br i1 %cmp10, label %for.body11, label %for.end30

for.body11:                                       ; preds = %for.cond9
  %14 = load ptr, ptr %__begin2, align 8
  store ptr %14, ptr %c, align 8
  %15 = load ptr, ptr %c, align 8
  %call12 = call noundef i64 @_ZNK3sat3cut5tableEv(ptr noundef nonnull align 8 dereferenceable(48) %15)
  store i64 %call12, ptr %t, align 8
  store i32 0, ptr %i13, align 4
  br label %for.cond14

for.cond14:                                       ; preds = %for.inc26, %for.body11
  %16 = load i32, ptr %i13, align 4
  store i32 6, ptr %ref.tmp, align 4
  %17 = load ptr, ptr %c, align 8
  %call16 = call noundef i32 @_ZNK3sat3cut4sizeEv(ptr noundef nonnull align 8 dereferenceable(48) %17)
  store i32 %call16, ptr %ref.tmp15, align 4
  %call17 = call noundef nonnull align 4 dereferenceable(4) ptr @_ZSt3minIjERKT_S2_S2_(ptr noundef nonnull align 4 dereferenceable(4) %ref.tmp, ptr noundef nonnull align 4 dereferenceable(4) %ref.tmp15)
  %18 = load i32, ptr %call17, align 4
  %cmp18 = icmp ult i32 %16, %18
  br i1 %cmp18, label %for.body19, label %for.end28

for.body19:                                       ; preds = %for.cond14
  %19 = load i32, ptr %i13, align 4
  %idxprom20 = zext i32 %19 to i64
  %arrayidx21 = getelementptr inbounds [7 x i64], ptr %masks, i64 0, i64 %idxprom20
  %20 = load i64, ptr %arrayidx21, align 8
  %21 = load i64, ptr %t, align 8
  %22 = load i64, ptr %t, align 8
  %23 = load i32, ptr %i13, align 4
  %sh_prom = zext i32 %23 to i64
  %shl = shl i64 1, %sh_prom
  %shr = lshr i64 %22, %shl
  %xor = xor i64 %21, %shr
  %and = and i64 %20, %xor
  store i64 %and, ptr %diff, align 8
  %24 = load i64, ptr %diff, align 8
  %cmp22 = icmp eq i64 %24, 0
  br i1 %cmp22, label %if.then, label %if.end

if.then:                                          ; preds = %for.body19
  %25 = load ptr, ptr %c, align 8
  call void @llvm.memcpy.p0.p0.i64(ptr align 8 %d, ptr align 8 %25, i64 48, i1 false)
  %26 = load i32, ptr %i13, align 4
  call void @_ZN3sat3cut11remove_elemEj(ptr noundef nonnull align 8 dereferenceable(48) %d, i32 noundef %26)
  %27 = load ptr, ptr %cs, align 8
  %m_on_cut_add = getelementptr inbounds %"class.sat::aig_cuts", ptr %this1, i32 0, i32 17
  %m_on_cut_del = getelementptr inbounds %"class.sat::aig_cuts", ptr %this1, i32 0, i32 18
  %call23 = call noundef zeroext i1 @_ZN3sat7cut_set6insertERSt8functionIFvjRKNS_3cutEEES7_S4_(ptr noundef nonnull align 8 dereferenceable(32) %27, ptr noundef nonnull align 8 dereferenceable(32) %m_on_cut_add, ptr noundef nonnull align 8 dereferenceable(32) %m_on_cut_del, ptr noundef nonnull align 8 dereferenceable(48) %d)
  %28 = load ptr, ptr %cs, align 8
  %m_on_cut_del24 = getelementptr inbounds %"class.sat::aig_cuts", ptr %this1, i32 0, i32 18
  %29 = load ptr, ptr %c, align 8
  call void @_ZN3sat7cut_set5evictERSt8functionIFvjRKNS_3cutEEES4_(ptr noundef nonnull align 8 dereferenceable(32) %28, ptr noundef nonnull align 8 dereferenceable(32) %m_on_cut_del24, ptr noundef nonnull align 8 dereferenceable(48) %29)
  %30 = load i32, ptr %dont_cares, align 4
  %inc25 = add i32 %30, 1
  store i32 %inc25, ptr %dont_cares, align 4
  br label %for.end28

if.end:                                           ; preds = %for.body19
  br label %for.inc26

for.inc26:                                        ; preds = %if.end
  %31 = load i32, ptr %i13, align 4
  %inc27 = add i32 %31, 1
  store i32 %inc27, ptr %i13, align 4
  br label %for.cond14, !llvm.loop !41

for.end28:                                        ; preds = %if.then, %for.cond14
  br label %for.inc29

for.inc29:                                        ; preds = %for.end28
  %32 = load ptr, ptr %__begin2, align 8
  %incdec.ptr = getelementptr inbounds %"class.sat::cut", ptr %32, i32 1
  store ptr %incdec.ptr, ptr %__begin2, align 8
  br label %for.cond9

for.end30:                                        ; preds = %for.cond9
  br label %for.inc31

for.inc31:                                        ; preds = %for.end30
  %33 = load ptr, ptr %__begin1, align 8
  %incdec.ptr32 = getelementptr inbounds %"class.sat::cut_set", ptr %33, i32 1
  store ptr %incdec.ptr32, ptr %__begin1, align 8
  br label %for.cond4

for.end33:                                        ; preds = %for.cond4
  %call34 = call noundef i32 @_Z19get_verbosity_levelv()
  %cmp35 = icmp uge i32 %call34, 0
  br i1 %cmp35, label %if.then36, label %if.end48

if.then36:                                        ; preds = %for.end33
  %call37 = call noundef zeroext i1 @_Z11is_threadedv()
  br i1 %call37, label %if.then38, label %if.else

if.then38:                                        ; preds = %if.then36
  call void @_Z12verbose_lockv()
  %call39 = call noundef nonnull align 8 dereferenceable(8) ptr @_Z14verbose_streamv()
  %call40 = call noundef nonnull align 8 dereferenceable(8) ptr @_ZStlsISt11char_traitsIcEERSt13basic_ostreamIcT_ES5_PKc(ptr noundef nonnull align 8 dereferenceable(8) %call39, ptr noundef @.str.30)
  %34 = load i32, ptr %dont_cares, align 4
  %call41 = call noundef nonnull align 8 dereferenceable(8) ptr @_ZNSolsEj(ptr noundef nonnull align 8 dereferenceable(8) %call40, i32 noundef %34)
  %call42 = call noundef nonnull align 8 dereferenceable(8) ptr @_ZStlsISt11char_traitsIcEERSt13basic_ostreamIcT_ES5_PKc(ptr noundef nonnull align 8 dereferenceable(8) %call41, ptr noundef @.str.6)
  call void @_Z14verbose_unlockv()
  br label %if.end47

if.else:                                          ; preds = %if.then36
  %call43 = call noundef nonnull align 8 dereferenceable(8) ptr @_Z14verbose_streamv()
  %call44 = call noundef nonnull align 8 dereferenceable(8) ptr @_ZStlsISt11char_traitsIcEERSt13basic_ostreamIcT_ES5_PKc(ptr noundef nonnull align 8 dereferenceable(8) %call43, ptr noundef @.str.30)
  %35 = load i32, ptr %dont_cares, align 4
  %call45 = call noundef nonnull align 8 dereferenceable(8) ptr @_ZNSolsEj(ptr noundef nonnull align 8 dereferenceable(8) %call44, i32 noundef %35)
  %call46 = call noundef nonnull align 8 dereferenceable(8) ptr @_ZStlsISt11char_traitsIcEERSt13basic_ostreamIcT_ES5_PKc(ptr noundef nonnull align 8 dereferenceable(8) %call45, ptr noundef @.str.6)
  br label %if.end47

if.end47:                                         ; preds = %if.else, %if.then38
  br label %if.end48

if.end48:                                         ; preds = %if.end47, %for.end33
  ret void
}