; Function Attrs: mustprogress uwtable
define hidden void @_ZN3sat8aig_cuts8simplifyEv(ptr noundef nonnull align 8 dereferenceable(480) %this) local_unnamed_addr #3 align 2 {
entry:
  %masks = alloca [7 x i64], align 16
  %d = alloca %"class.sat::cut", align 8
  br label %for.body

for.body:                                         ; preds = %entry, %for.body
  %indvars.iv = phi i64 [ 0, %entry ], [ %indvars.iv.next, %for.body ]
  %0 = trunc i64 %indvars.iv to i32
  %call = tail call noundef i64 @_ZN3sat3cut11effect_maskEj(i32 noundef %0)
  %arrayidx = getelementptr inbounds [7 x i64], ptr %masks, i64 0, i64 %indvars.iv
  store i64 %call, ptr %arrayidx, align 8
  %indvars.iv.next = add nuw nsw i64 %indvars.iv, 1
  %exitcond.not = icmp eq i64 %indvars.iv.next, 7
  br i1 %exitcond.not, label %for.end, label %for.body, !llvm.loop !50

for.end:                                          ; preds = %for.body
  %m_cuts = getelementptr inbounds i8, ptr %this, i64 176
  %1 = load ptr, ptr %m_cuts, align 8
  %cmp.i.i = icmp eq ptr %1, null
  br i1 %cmp.i.i, label %for.end33, label %_ZN6vectorIN3sat7cut_setELb1EjE3endEv.exit

_ZN6vectorIN3sat7cut_setELb1EjE3endEv.exit:       ; preds = %for.end
  %arrayidx.i.i = getelementptr inbounds i8, ptr %1, i64 -4
  %2 = load i32, ptr %arrayidx.i.i, align 4
  %3 = zext i32 %2 to i64
  %add.ptr.i = getelementptr inbounds %"class.sat::cut_set", ptr %1, i64 %3
  %cmp5.not34 = icmp eq i32 %2, 0
  br i1 %cmp5.not34, label %for.end33, label %for.body6.lr.ph

for.body6.lr.ph:                                  ; preds = %_ZN6vectorIN3sat7cut_setELb1EjE3endEv.exit
  %m_on_cut_add = getelementptr inbounds i8, ptr %this, i64 288
  %m_on_cut_del = getelementptr inbounds i8, ptr %this, i64 320
  br label %for.body6

for.body6:                                        ; preds = %for.body6.lr.ph, %for.inc31
  %dont_cares.036 = phi i32 [ 0, %for.body6.lr.ph ], [ %dont_cares.1.lcssa, %for.inc31 ]
  %__begin1.035 = phi ptr [ %1, %for.body6.lr.ph ], [ %incdec.ptr32, %for.inc31 ]
  %m_cuts.i = getelementptr inbounds i8, ptr %__begin1.035, i64 24
  %4 = load ptr, ptr %m_cuts.i, align 8
  %m_size.i = getelementptr inbounds i8, ptr %__begin1.035, i64 16
  %5 = load i32, ptr %m_size.i, align 8
  %idx.ext.i = zext i32 %5 to i64
  %add.ptr.i23 = getelementptr inbounds %"class.sat::cut", ptr %4, i64 %idx.ext.i
  %cmp10.not31 = icmp eq i32 %5, 0
  br i1 %cmp10.not31, label %for.inc31, label %for.body11

for.body11:                                       ; preds = %for.body6, %for.inc29
  %dont_cares.133 = phi i32 [ %dont_cares.2, %for.inc29 ], [ %dont_cares.036, %for.body6 ]
  %__begin2.032 = phi ptr [ %incdec.ptr, %for.inc29 ], [ %4, %for.body6 ]
  %m_table.i = getelementptr inbounds i8, ptr %__begin2.032, i64 32
  %6 = load i64, ptr %m_table.i, align 8
  %m_dont_care.i = getelementptr inbounds i8, ptr %__begin2.032, i64 40
  %7 = load i64, ptr %m_dont_care.i, align 8
  %or.i = or i64 %7, %6
  %m_size.i.i = getelementptr inbounds i8, ptr %__begin2.032, i64 4
  %8 = load i32, ptr %m_size.i.i, align 4
  %sh_prom.i.i = zext nneg i32 %8 to i64
  %shl.i.i = shl nuw i64 1, %sh_prom.i.i
  %notmask.i.i = shl nsw i64 -1, %shl.i.i
  %sub.i.i = xor i64 %notmask.i.i, -1
  %and.i = and i64 %or.i, %sub.i.i
  %cmp1829.not = icmp eq i32 %8, 0
  br i1 %cmp1829.not, label %for.inc29, label %for.body19.preheader

for.body19.preheader:                             ; preds = %for.body11
  %.sroa.speculated = call i32 @llvm.umin.i32(i32 %8, i32 6)
  %wide.trip.count = zext nneg i32 %.sroa.speculated to i64
  br label %for.body19

for.body19:                                       ; preds = %for.body19.preheader, %for.inc26
  %indvars.iv40 = phi i64 [ 0, %for.body19.preheader ], [ %indvars.iv.next41, %for.inc26 ]
  %arrayidx21 = getelementptr inbounds [7 x i64], ptr %masks, i64 0, i64 %indvars.iv40
  %9 = load i64, ptr %arrayidx21, align 8
  %shl = shl nuw nsw i64 1, %indvars.iv40
  %shr = lshr i64 %and.i, %shl
  %xor = xor i64 %shr, %and.i
  %and = and i64 %9, %xor
  %cmp22 = icmp eq i64 %and, 0
  br i1 %cmp22, label %if.then, label %for.inc26

if.then:                                          ; preds = %for.body19
  %10 = trunc i64 %indvars.iv40 to i32
  call void @llvm.memcpy.p0.p0.i64(ptr noundef nonnull align 8 dereferenceable(48) %d, ptr noundef nonnull align 8 dereferenceable(48) %__begin2.032, i64 48, i1 false)
  call void @_ZN3sat3cut11remove_elemEj(ptr noundef nonnull align 8 dereferenceable(48) %d, i32 noundef %10)
  %call23 = call noundef zeroext i1 @_ZN3sat7cut_set6insertERSt8functionIFvjRKNS_3cutEEES7_S4_(ptr noundef nonnull align 8 dereferenceable(32) %__begin1.035, ptr noundef nonnull align 8 dereferenceable(32) %m_on_cut_add, ptr noundef nonnull align 8 dereferenceable(32) %m_on_cut_del, ptr noundef nonnull align 8 dereferenceable(48) %d)
  call void @_ZN3sat7cut_set5evictERSt8functionIFvjRKNS_3cutEEES4_(ptr noundef nonnull align 8 dereferenceable(32) %__begin1.035, ptr noundef nonnull align 8 dereferenceable(32) %m_on_cut_del, ptr noundef nonnull align 8 dereferenceable(48) %__begin2.032)
  %inc25 = add i32 %dont_cares.133, 1
  br label %for.inc29

for.inc26:                                        ; preds = %for.body19
  %indvars.iv.next41 = add nuw nsw i64 %indvars.iv40, 1
  %exitcond43.not = icmp eq i64 %indvars.iv.next41, %wide.trip.count
  br i1 %exitcond43.not, label %for.inc29, label %for.body19, !llvm.loop !51

for.inc29:                                        ; preds = %for.inc26, %for.body11, %if.then
  %dont_cares.2 = phi i32 [ %inc25, %if.then ], [ %dont_cares.133, %for.body11 ], [ %dont_cares.133, %for.inc26 ]
  %incdec.ptr = getelementptr inbounds i8, ptr %__begin2.032, i64 48
  %cmp10.not = icmp eq ptr %incdec.ptr, %add.ptr.i23
  br i1 %cmp10.not, label %for.inc31, label %for.body11

for.inc31:                                        ; preds = %for.inc29, %for.body6
  %dont_cares.1.lcssa = phi i32 [ %dont_cares.036, %for.body6 ], [ %dont_cares.2, %for.inc29 ]
  %incdec.ptr32 = getelementptr inbounds i8, ptr %__begin1.035, i64 32
  %cmp5.not = icmp eq ptr %incdec.ptr32, %add.ptr.i
  br i1 %cmp5.not, label %for.end33, label %for.body6

for.end33:                                        ; preds = %for.inc31, %for.end, %_ZN6vectorIN3sat7cut_setELb1EjE3endEv.exit
  %dont_cares.0.lcssa = phi i32 [ 0, %_ZN6vectorIN3sat7cut_setELb1EjE3endEv.exit ], [ 0, %for.end ], [ %dont_cares.1.lcssa, %for.inc31 ]
  %call34 = call noundef i32 @_Z19get_verbosity_levelv()
  %call37 = call noundef zeroext i1 @_Z11is_threadedv()
  br i1 %call37, label %if.then38, label %if.else

if.then38:                                        ; preds = %for.end33
  call void @_Z12verbose_lockv()
  %call39 = call noundef nonnull align 8 dereferenceable(8) ptr @_Z14verbose_streamv()
  %call40 = call noundef nonnull align 8 dereferenceable(8) ptr @_ZStlsISt11char_traitsIcEERSt13basic_ostreamIcT_ES5_PKc(ptr noundef nonnull align 8 dereferenceable(8) %call39, ptr noundef nonnull @.str.30)
  %call41 = call noundef nonnull align 8 dereferenceable(8) ptr @_ZNSolsEj(ptr noundef nonnull align 8 dereferenceable(8) %call40, i32 noundef %dont_cares.0.lcssa)
  %call42 = call noundef nonnull align 8 dereferenceable(8) ptr @_ZStlsISt11char_traitsIcEERSt13basic_ostreamIcT_ES5_PKc(ptr noundef nonnull align 8 dereferenceable(8) %call41, ptr noundef nonnull @.str.6)
  call void @_Z14verbose_unlockv()
  br label %if.end48

if.else:                                          ; preds = %for.end33
  %call43 = call noundef nonnull align 8 dereferenceable(8) ptr @_Z14verbose_streamv()
  %call44 = call noundef nonnull align 8 dereferenceable(8) ptr @_ZStlsISt11char_traitsIcEERSt13basic_ostreamIcT_ES5_PKc(ptr noundef nonnull align 8 dereferenceable(8) %call43, ptr noundef nonnull @.str.30)
  %call45 = call noundef nonnull align 8 dereferenceable(8) ptr @_ZNSolsEj(ptr noundef nonnull align 8 dereferenceable(8) %call44, i32 noundef %dont_cares.0.lcssa)
  %call46 = call noundef nonnull align 8 dereferenceable(8) ptr @_ZStlsISt11char_traitsIcEERSt13basic_ostreamIcT_ES5_PKc(ptr noundef nonnull align 8 dereferenceable(8) %call45, ptr noundef nonnull @.str.6)
  br label %if.end48

if.end48:                                         ; preds = %if.then38, %if.else
  ret void
}